target datalayout = "e-m:e-p270:32:32-p271:32:32-p272:64:64-i64:64-i128:128-f80:128-n8:16:32:64-S128"
target triple = "x86_64-pc-linux-gnu"

%"struct.ue2::(anonymous namespace)::RegionInfo" = type <{ i32, [4 x i8], %"class.std::deque.13", %"class.ue2::CharReach", %"class.ue2::depth", %"class.ue2::depth", i8, [7 x i8] }>
%"class.std::deque.13" = type { %"class.std::_Deque_base.14" }
%"class.std::_Deque_base.14" = type { %"struct.std::_Deque_base<ue2::graph_detail::vertex_descriptor<ue2::ue2_graph<ue2::NGHolder, ue2::NFAGraphVertexProps, ue2::NFAGraphEdgeProps>>, std::allocator<ue2::graph_detail::vertex_descriptor<ue2::ue2_graph<ue2::NGHolder, ue2::NFAGraphVertexProps, ue2::NFAGraphEdgeProps>>>>::_Deque_impl" }
%"struct.std::_Deque_base<ue2::graph_detail::vertex_descriptor<ue2::ue2_graph<ue2::NGHolder, ue2::NFAGraphVertexProps, ue2::NFAGraphEdgeProps>>, std::allocator<ue2::graph_detail::vertex_descriptor<ue2::ue2_graph<ue2::NGHolder, ue2::NFAGraphVertexProps, ue2::NFAGraphEdgeProps>>>>::_Deque_impl" = type { %"struct.std::_Deque_base<ue2::graph_detail::vertex_descriptor<ue2::ue2_graph<ue2::NGHolder, ue2::NFAGraphVertexProps, ue2::NFAGraphEdgeProps>>, std::allocator<ue2::graph_detail::vertex_descriptor<ue2::ue2_graph<ue2::NGHolder, ue2::NFAGraphVertexProps, ue2::NFAGraphEdgeProps>>>>::_Deque_impl_data" }
%"struct.std::_Deque_base<ue2::graph_detail::vertex_descriptor<ue2::ue2_graph<ue2::NGHolder, ue2::NFAGraphVertexProps, ue2::NFAGraphEdgeProps>>, std::allocator<ue2::graph_detail::vertex_descriptor<ue2::ue2_graph<ue2::NGHolder, ue2::NFAGraphVertexProps, ue2::NFAGraphEdgeProps>>>>::_Deque_impl_data" = type { ptr, i64, %"struct.std::_Deque_iterator.18", %"struct.std::_Deque_iterator.18" }
%"struct.std::_Deque_iterator.18" = type { ptr, ptr, ptr, ptr }
%"class.ue2::CharReach" = type { %"class.ue2::bitfield" }
%"class.ue2::bitfield" = type { %"struct.std::array" }
%"struct.std::array" = type { [4 x i64] }
%"class.ue2::depth" = type { i32 }

@_ZN3ue2L16PENALTY_BOUNDARYE = internal constant i64 32, align 8

; Function Attrs: inlinehint mustprogress nounwind uwtable
define linkonce_odr dso_local noundef i64 @_ZSt16__deque_buf_sizem(i64 noundef %0) #5 comdat {
  %2 = alloca i64, align 8
  store i64 %0, ptr %2, align 8
  %3 = load i64, ptr %2, align 8
  %4 = icmp ult i64 %3, 512
  br i1 %4, label %5, label %8

5:                                                ; preds = %1
  %6 = load i64, ptr %2, align 8
  %7 = udiv i64 512, %6
  br label %9

8:                                                ; preds = %1
  br label %9

9:                                                ; preds = %8, %5
  %10 = phi i64 [ %7, %5 ], [ 1, %8 ]
  ret i64 %10
}

; Function Attrs: mustprogress nounwind uwtable
define linkonce_odr dso_local noundef nonnull align 8 dereferenceable(8) ptr @_ZNSt14__array_traitsIyLm4EE6_S_refERA4_Kym(ptr noundef nonnull align 8 dereferenceable(32) %0, i64 noundef %1) #1 comdat align 2 {
  %3 = alloca ptr, align 8
  %4 = alloca i64, align 8
  store ptr %0, ptr %3, align 8
  store i64 %1, ptr %4, align 8
  %5 = load ptr, ptr %3, align 8
  %6 = load i64, ptr %4, align 8
  %7 = getelementptr inbounds nuw [4 x i64], ptr %5, i64 0, i64 %6
  ret ptr %7
}

; Function Attrs: mustprogress nounwind uwtable
define linkonce_odr hidden noundef i64 @_ZNSt15_Deque_iteratorIN3ue212graph_detail17vertex_descriptorINS0_9ue2_graphINS0_8NGHolderENS0_19NFAGraphVertexPropsENS0_17NFAGraphEdgePropsEEEEERS8_PS8_E14_S_buffer_sizeEv() #1 comdat align 2 {
  %1 = call noundef i64 @_ZSt16__deque_buf_sizem(i64 noundef 16)
  ret i64 %1
}

; Function Attrs: alwaysinline mustprogress nounwind uwtable
define internal noundef i32 @_ZL10popcount64y(i64 noundef %0) #17 {
  %2 = alloca i64, align 8
  store i64 %0, ptr %2, align 8
  %3 = load i64, ptr %2, align 8
  %4 = lshr i64 %3, 1
  %5 = and i64 %4, 6148914691236517205
  %6 = load i64, ptr %2, align 8
  %7 = sub i64 %6, %5
  store i64 %7, ptr %2, align 8
  %8 = load i64, ptr %2, align 8
  %9 = and i64 %8, 3689348814741910323
  %10 = load i64, ptr %2, align 8
  %11 = lshr i64 %10, 2
  %12 = and i64 %11, 3689348814741910323
  %13 = add i64 %9, %12
  store i64 %13, ptr %2, align 8
  %14 = load i64, ptr %2, align 8
  %15 = load i64, ptr %2, align 8
  %16 = lshr i64 %15, 4
  %17 = add i64 %14, %16
  %18 = and i64 %17, 1085102592571150095
  store i64 %18, ptr %2, align 8
  %19 = load i64, ptr %2, align 8
  %20 = mul i64 %19, 72340172838076673
  %21 = lshr i64 %20, 56
  %22 = trunc i64 %21 to i32
  ret i32 %22
}

; Function Attrs: mustprogress nounwind uwtable
define linkonce_odr dso_local noundef nonnull align 8 dereferenceable(8) ptr @_ZNKSt5arrayIyLm4EEixEm(ptr noundef nonnull align 8 dereferenceable(32) %0, i64 noundef %1) #1 comdat align 2 {
  %3 = alloca ptr, align 8
  %4 = alloca i64, align 8
  store ptr %0, ptr %3, align 8
  store i64 %1, ptr %4, align 8
  %5 = load ptr, ptr %3, align 8
  %6 = getelementptr inbounds nuw %"struct.std::array", ptr %5, i32 0, i32 0
  %7 = load i64, ptr %4, align 8
  %8 = call noundef nonnull align 8 dereferenceable(8) ptr @_ZNSt14__array_traitsIyLm4EE6_S_refERA4_Kym(ptr noundef nonnull align 8 dereferenceable(32) %6, i64 noundef %7) #19
  ret ptr %8
}

; Function Attrs: mustprogress nounwind uwtable
define linkonce_odr dso_local noundef i64 @_ZStmiRKSt15_Deque_iteratorIN3ue212graph_detail17vertex_descriptorINS0_9ue2_graphINS0_8NGHolderENS0_19NFAGraphVertexPropsENS0_17NFAGraphEdgePropsEEEEERS8_PS8_ESD_(ptr noundef nonnull align 8 dereferenceable(32) %0, ptr noundef nonnull align 8 dereferenceable(32) %1) #1 comdat {
  %3 = alloca ptr, align 8
  %4 = alloca ptr, align 8
  store ptr %0, ptr %3, align 8
  store ptr %1, ptr %4, align 8
  %5 = call noundef i64 @_ZNSt15_Deque_iteratorIN3ue212graph_detail17vertex_descriptorINS0_9ue2_graphINS0_8NGHolderENS0_19NFAGraphVertexPropsENS0_17NFAGraphEdgePropsEEEEERS8_PS8_E14_S_buffer_sizeEv() #19
  %6 = load ptr, ptr %3, align 8
  %7 = getelementptr inbounds nuw %"struct.std::_Deque_iterator.18", ptr %6, i32 0, i32 3
  %8 = load ptr, ptr %7, align 8
  %9 = load ptr, ptr %4, align 8
  %10 = getelementptr inbounds nuw %"struct.std::_Deque_iterator.18", ptr %9, i32 0, i32 3
  %11 = load ptr, ptr %10, align 8
  %12 = ptrtoint ptr %8 to i64
  %13 = ptrtoint ptr %11 to i64
  %14 = sub i64 %12, %13
  %15 = sdiv exact i64 %14, 8
  %16 = load ptr, ptr %3, align 8
  %17 = getelementptr inbounds nuw %"struct.std::_Deque_iterator.18", ptr %16, i32 0, i32 3
  %18 = load ptr, ptr %17, align 8
  %19 = icmp ne ptr %18, null
  %20 = zext i1 %19 to i64
  %21 = sub nsw i64 %15, %20
  %22 = mul nsw i64 %5, %21
  %23 = load ptr, ptr %3, align 8
  %24 = getelementptr inbounds nuw %"struct.std::_Deque_iterator.18", ptr %23, i32 0, i32 0
  %25 = load ptr, ptr %24, align 8
  %26 = load ptr, ptr %3, align 8
  %27 = getelementptr inbounds nuw %"struct.std::_Deque_iterator.18", ptr %26, i32 0, i32 1
  %28 = load ptr, ptr %27, align 8
  %29 = ptrtoint ptr %25 to i64
  %30 = ptrtoint ptr %28 to i64
  %31 = sub i64 %29, %30
  %32 = sdiv exact i64 %31, 16
  %33 = add nsw i64 %22, %32
  %34 = load ptr, ptr %4, align 8
  %35 = getelementptr inbounds nuw %"struct.std::_Deque_iterator.18", ptr %34, i32 0, i32 2
  %36 = load ptr, ptr %35, align 8
  %37 = load ptr, ptr %4, align 8
  %38 = getelementptr inbounds nuw %"struct.std::_Deque_iterator.18", ptr %37, i32 0, i32 0
  %39 = load ptr, ptr %38, align 8
  %40 = ptrtoint ptr %36 to i64
  %41 = ptrtoint ptr %39 to i64
  %42 = sub i64 %40, %41
  %43 = sdiv exact i64 %42, 16
  %44 = add nsw i64 %33, %43
  ret i64 %44
}

; Function Attrs: mustprogress uwtable
define linkonce_odr hidden noundef i64 @_ZNK3ue28bitfieldILm256EE5countEv(ptr noundef nonnull align 8 dereferenceable(32) %0) #3 comdat align 2 {
  %2 = alloca ptr, align 8
  %3 = alloca i64, align 8
  %4 = alloca i64, align 8
  store ptr %0, ptr %2, align 8
  %5 = load ptr, ptr %2, align 8
  call void @llvm.lifetime.start.p0(i64 8, ptr %3) #19
  store i64 0, ptr %3, align 8
  call void @llvm.lifetime.start.p0(i64 8, ptr %4) #19
  store i64 0, ptr %4, align 8
  br label %6

6:                                                ; preds = %46, %1
  %7 = load i64, ptr %4, align 8
  %8 = add i64 %7, 4
  %9 = icmp ule i64 %8, 4
  br i1 %9, label %10, label %49

10:                                               ; preds = %6
  %11 = getelementptr inbounds nuw %"class.ue2::bitfield", ptr %5, i32 0, i32 0
  %12 = load i64, ptr %4, align 8
  %13 = call noundef nonnull align 8 dereferenceable(8) ptr @_ZNKSt5arrayIyLm4EEixEm(ptr noundef nonnull align 8 dereferenceable(32) %11, i64 noundef %12) #19
  %14 = load i64, ptr %13, align 8
  %15 = call noundef i32 @_ZL10popcount64y(i64 noundef %14)
  %16 = zext i32 %15 to i64
  %17 = load i64, ptr %3, align 8
  %18 = add i64 %17, %16
  store i64 %18, ptr %3, align 8
  %19 = getelementptr inbounds nuw %"class.ue2::bitfield", ptr %5, i32 0, i32 0
  %20 = load i64, ptr %4, align 8
  %21 = add i64 %20, 1
  %22 = call noundef nonnull align 8 dereferenceable(8) ptr @_ZNKSt5arrayIyLm4EEixEm(ptr noundef nonnull align 8 dereferenceable(32) %19, i64 noundef %21) #19
  %23 = load i64, ptr %22, align 8
  %24 = call noundef i32 @_ZL10popcount64y(i64 noundef %23)
  %25 = zext i32 %24 to i64
  %26 = load i64, ptr %3, align 8
  %27 = add i64 %26, %25
  store i64 %27, ptr %3, align 8
  %28 = getelementptr inbounds nuw %"class.ue2::bitfield", ptr %5, i32 0, i32 0
  %29 = load i64, ptr %4, align 8
  %30 = add i64 %29, 2
  %31 = call noundef nonnull align 8 dereferenceable(8) ptr @_ZNKSt5arrayIyLm4EEixEm(ptr noundef nonnull align 8 dereferenceable(32) %28, i64 noundef %30) #19
  %32 = load i64, ptr %31, align 8
  %33 = call noundef i32 @_ZL10popcount64y(i64 noundef %32)
  %34 = zext i32 %33 to i64
  %35 = load i64, ptr %3, align 8
  %36 = add i64 %35, %34
  store i64 %36, ptr %3, align 8
  %37 = getelementptr inbounds nuw %"class.ue2::bitfield", ptr %5, i32 0, i32 0
  %38 = load i64, ptr %4, align 8
  %39 = add i64 %38, 3
  %40 = call noundef nonnull align 8 dereferenceable(8) ptr @_ZNKSt5arrayIyLm4EEixEm(ptr noundef nonnull align 8 dereferenceable(32) %37, i64 noundef %39) #19
  %41 = load i64, ptr %40, align 8
  %42 = call noundef i32 @_ZL10popcount64y(i64 noundef %41)
  %43 = zext i32 %42 to i64
  %44 = load i64, ptr %3, align 8
  %45 = add i64 %44, %43
  store i64 %45, ptr %3, align 8
  br label %46

46:                                               ; preds = %10
  %47 = load i64, ptr %4, align 8
  %48 = add i64 %47, 4
  store i64 %48, ptr %4, align 8
  br label %6, !llvm.loop !29

49:                                               ; preds = %6
  br label %50

50:                                               ; preds = %62, %49
  %51 = load i64, ptr %4, align 8
  %52 = icmp ult i64 %51, 4
  br i1 %52, label %53, label %65

53:                                               ; preds = %50
  %54 = getelementptr inbounds nuw %"class.ue2::bitfield", ptr %5, i32 0, i32 0
  %55 = load i64, ptr %4, align 8
  %56 = call noundef nonnull align 8 dereferenceable(8) ptr @_ZNKSt5arrayIyLm4EEixEm(ptr noundef nonnull align 8 dereferenceable(32) %54, i64 noundef %55) #19
  %57 = load i64, ptr %56, align 8
  %58 = call noundef i32 @_ZL10popcount64y(i64 noundef %57)
  %59 = zext i32 %58 to i64
  %60 = load i64, ptr %3, align 8
  %61 = add i64 %60, %59
  store i64 %61, ptr %3, align 8
  br label %62

62:                                               ; preds = %53
  %63 = load i64, ptr %4, align 8
  %64 = add i64 %63, 1
  store i64 %64, ptr %4, align 8
  br label %50, !llvm.loop !30

65:                                               ; preds = %50
  %66 = load i64, ptr %3, align 8
  call void @llvm.lifetime.end.p0(i64 8, ptr %4) #19
  call void @llvm.lifetime.end.p0(i64 8, ptr %3) #19
  ret i64 %66
}

; Function Attrs: inlinehint mustprogress nounwind uwtable
define linkonce_odr dso_local noundef nonnull align 8 dereferenceable(8) ptr @_ZSt3minImERKT_S2_S2_(ptr noundef nonnull align 8 dereferenceable(8) %0, ptr noundef nonnull align 8 dereferenceable(8) %1) #5 comdat {
  %3 = alloca ptr, align 8
  %4 = alloca ptr, align 8
  %5 = alloca ptr, align 8
  store ptr %0, ptr %4, align 8
  store ptr %1, ptr %5, align 8
  %6 = load ptr, ptr %5, align 8
  %7 = load i64, ptr %6, align 8
  %8 = load ptr, ptr %4, align 8
  %9 = load i64, ptr %8, align 8
  %10 = icmp ult i64 %7, %9
  br i1 %10, label %11, label %13

11:                                               ; preds = %2
  %12 = load ptr, ptr %5, align 8
  store ptr %12, ptr %3, align 8
  br label %15

13:                                               ; preds = %2
  %14 = load ptr, ptr %4, align 8
  store ptr %14, ptr %3, align 8
  br label %15

15:                                               ; preds = %13, %11
  %16 = load ptr, ptr %3, align 8
  ret ptr %16
}

; Function Attrs: mustprogress nounwind uwtable
define linkonce_odr hidden noundef i64 @_ZNKSt5dequeIN3ue212graph_detail17vertex_descriptorINS0_9ue2_graphINS0_8NGHolderENS0_19NFAGraphVertexPropsENS0_17NFAGraphEdgePropsEEEEESaIS8_EE4sizeEv(ptr noundef nonnull align 8 dereferenceable(80) %0) #1 comdat align 2 {
  %2 = alloca ptr, align 8
  store ptr %0, ptr %2, align 8
  %3 = load ptr, ptr %2, align 8
  %4 = getelementptr inbounds nuw %"class.std::_Deque_base.14", ptr %3, i32 0, i32 0
  %5 = getelementptr inbounds nuw %"struct.std::_Deque_base<ue2::graph_detail::vertex_descriptor<ue2::ue2_graph<ue2::NGHolder, ue2::NFAGraphVertexProps, ue2::NFAGraphEdgeProps>>, std::allocator<ue2::graph_detail::vertex_descriptor<ue2::ue2_graph<ue2::NGHolder, ue2::NFAGraphVertexProps, ue2::NFAGraphEdgeProps>>>>::_Deque_impl_data", ptr %4, i32 0, i32 3
  %6 = getelementptr inbounds nuw %"class.std::_Deque_base.14", ptr %3, i32 0, i32 0
  %7 = getelementptr inbounds nuw %"struct.std::_Deque_base<ue2::graph_detail::vertex_descriptor<ue2::ue2_graph<ue2::NGHolder, ue2::NFAGraphVertexProps, ue2::NFAGraphEdgeProps>>, std::allocator<ue2::graph_detail::vertex_descriptor<ue2::ue2_graph<ue2::NGHolder, ue2::NFAGraphVertexProps, ue2::NFAGraphEdgeProps>>>>::_Deque_impl_data", ptr %6, i32 0, i32 2
  %8 = call noundef i64 @_ZStmiRKSt15_Deque_iteratorIN3ue212graph_detail17vertex_descriptorINS0_9ue2_graphINS0_8NGHolderENS0_19NFAGraphVertexPropsENS0_17NFAGraphEdgePropsEEEEERS8_PS8_ESD_(ptr noundef nonnull align 8 dereferenceable(32) %5, ptr noundef nonnull align 8 dereferenceable(32) %7) #19
  ret i64 %8
}

; Function Attrs: mustprogress uwtable
define linkonce_odr hidden noundef i64 @_ZNK3ue29CharReach5countEv(ptr noundef nonnull align 8 dereferenceable(32) %0) #3 comdat align 2 {
  %2 = alloca ptr, align 8
  store ptr %0, ptr %2, align 8
  %3 = load ptr, ptr %2, align 8
  %4 = getelementptr inbounds nuw %"class.ue2::CharReach", ptr %3, i32 0, i32 0
  %5 = call noundef i64 @_ZNK3ue28bitfieldILm256EE5countEv(ptr noundef nonnull align 8 dereferenceable(32) %4)
  ret i64 %5
}

; Function Attrs: mustprogress nounwind uwtable
define internal noundef i64 @_ZNK3ue212_GLOBAL__N_110RegionInfo5scoreEv(ptr noundef nonnull align 8 dereferenceable(129) %0) #1 align 2 {
  %2 = alloca i64, align 8
  %3 = alloca ptr, align 8
  %4 = alloca i64, align 8
  %5 = alloca i32, align 4
  store ptr %0, ptr %3, align 8
  %6 = load ptr, ptr %3, align 8
  call void @llvm.lifetime.start.p0(i64 8, ptr %4) #19
  %7 = getelementptr inbounds nuw %"struct.ue2::(anonymous namespace)::RegionInfo", ptr %6, i32 0, i32 2
  %8 = call noundef i64 @_ZNKSt5dequeIN3ue212graph_detail17vertex_descriptorINS0_9ue2_graphINS0_8NGHolderENS0_19NFAGraphVertexPropsENS0_17NFAGraphEdgePropsEEEEESaIS8_EE4sizeEv(ptr noundef nonnull align 8 dereferenceable(80) %7) #19
  store i64 %8, ptr %4, align 8
  %9 = getelementptr inbounds nuw %"struct.ue2::(anonymous namespace)::RegionInfo", ptr %6, i32 0, i32 6
  %10 = load i8, ptr %9, align 8, !range !5, !noundef !6
  %11 = trunc i8 %10 to i1
  br i1 %11, label %12, label %17

12:                                               ; preds = %1
  %13 = load i64, ptr %4, align 8
  %14 = call noundef nonnull align 8 dereferenceable(8) ptr @_ZSt3minImERKT_S2_S2_(ptr noundef nonnull align 8 dereferenceable(8) @_ZN3ue2L16PENALTY_BOUNDARYE, ptr noundef nonnull align 8 dereferenceable(8) %4)
  %15 = load i64, ptr %14, align 8
  %16 = sub i64 %13, %15
  store i64 %16, ptr %2, align 8
  store i32 1, ptr %5, align 4
  br label %19

17:                                               ; preds = %1
  %18 = load i64, ptr %4, align 8
  store i64 %18, ptr %2, align 8
  store i32 1, ptr %5, align 4
  br label %19

19:                                               ; preds = %17, %12
  call void @llvm.lifetime.end.p0(i64 8, ptr %4) #19
  %20 = load i64, ptr %2, align 8
  ret i64 %20
}

; Function Attrs: mustprogress uwtable
define internal noundef zeroext i1 @_ZNK3ue212_GLOBAL__N_119RegionInfoQueueCompclERKNS0_10RegionInfoES4_(ptr noundef nonnull align 1 dereferenceable(1) %0, ptr noundef nonnull align 8 dereferenceable(129) %1, ptr noundef nonnull align 8 dereferenceable(129) %2) #3 align 2 {
  %4 = alloca i1, align 1
  %5 = alloca ptr, align 8
  %6 = alloca ptr, align 8
  %7 = alloca ptr, align 8
  %8 = alloca i64, align 8
  %9 = alloca i64, align 8
  %10 = alloca i32, align 4
  store ptr %0, ptr %5, align 8
  store ptr %1, ptr %6, align 8
  store ptr %2, ptr %7, align 8
  call void @llvm.lifetime.start.p0(i64 8, ptr %8) #19
  %11 = load ptr, ptr %6, align 8
  %12 = call noundef i64 @_ZNK3ue212_GLOBAL__N_110RegionInfo5scoreEv(ptr noundef nonnull align 8 dereferenceable(129) %11)
  store i64 %12, ptr %8, align 8
  call void @llvm.lifetime.start.p0(i64 8, ptr %9) #19
  %13 = load ptr, ptr %7, align 8
  %14 = call noundef i64 @_ZNK3ue212_GLOBAL__N_110RegionInfo5scoreEv(ptr noundef nonnull align 8 dereferenceable(129) %13)
  store i64 %14, ptr %9, align 8
  %15 = load i64, ptr %8, align 8
  %16 = load i64, ptr %9, align 8
  %17 = icmp ne i64 %15, %16
  br i1 %17, label %18, label %22

18:                                               ; preds = %3
  %19 = load i64, ptr %8, align 8
  %20 = load i64, ptr %9, align 8
  %21 = icmp ult i64 %19, %20
  store i1 %21, ptr %4, align 1
  store i32 1, ptr %10, align 4
  br label %46

22:                                               ; preds = %3
  %23 = load ptr, ptr %6, align 8
  %24 = getelementptr inbounds nuw %"struct.ue2::(anonymous namespace)::RegionInfo", ptr %23, i32 0, i32 3
  %25 = call noundef i64 @_ZNK3ue29CharReach5countEv(ptr noundef nonnull align 8 dereferenceable(32) %24)
  %26 = load ptr, ptr %7, align 8
  %27 = getelementptr inbounds nuw %"struct.ue2::(anonymous namespace)::RegionInfo", ptr %26, i32 0, i32 3
  %28 = call noundef i64 @_ZNK3ue29CharReach5countEv(ptr noundef nonnull align 8 dereferenceable(32) %27)
  %29 = icmp ne i64 %25, %28
  br i1 %29, label %30, label %38

30:                                               ; preds = %22
  %31 = load ptr, ptr %6, align 8
  %32 = getelementptr inbounds nuw %"struct.ue2::(anonymous namespace)::RegionInfo", ptr %31, i32 0, i32 3
  %33 = call noundef i64 @_ZNK3ue29CharReach5countEv(ptr noundef nonnull align 8 dereferenceable(32) %32)
  %34 = load ptr, ptr %7, align 8
  %35 = getelementptr inbounds nuw %"struct.ue2::(anonymous namespace)::RegionInfo", ptr %34, i32 0, i32 3
  %36 = call noundef i64 @_ZNK3ue29CharReach5countEv(ptr noundef nonnull align 8 dereferenceable(32) %35)
  %37 = icmp ult i64 %33, %36
  store i1 %37, ptr %4, align 1
  store i32 1, ptr %10, align 4
  br label %46

38:                                               ; preds = %22
  %39 = load ptr, ptr %6, align 8
  %40 = getelementptr inbounds nuw %"struct.ue2::(anonymous namespace)::RegionInfo", ptr %39, i32 0, i32 0
  %41 = load i32, ptr %40, align 8
  %42 = load ptr, ptr %7, align 8
  %43 = getelementptr inbounds nuw %"struct.ue2::(anonymous namespace)::RegionInfo", ptr %42, i32 0, i32 0
  %44 = load i32, ptr %43, align 8
  %45 = icmp ult i32 %41, %44
  store i1 %45, ptr %4, align 1
  store i32 1, ptr %10, align 4
  br label %46

46:                                               ; preds = %38, %30, %18
  call void @llvm.lifetime.end.p0(i64 8, ptr %9) #19
  call void @llvm.lifetime.end.p0(i64 8, ptr %8) #19
  %47 = load i1, ptr %4, align 1
  ret i1 %47
}