; Function Attrs: mustprogress nofree norecurse nosync nounwind willreturn memory(argmem: read) uwtable
define internal fastcc noundef zeroext i1 @_ZNK3ue212_GLOBAL__N_119RegionInfoQueueCompclERKNS0_10RegionInfoES4_(ptr noundef nonnull readonly align 8 captures(none) dereferenceable(129) %0, ptr noundef nonnull readonly align 8 captures(none) dereferenceable(129) %1) unnamed_addr #16 align 2 {
  %3 = getelementptr inbounds nuw i8, ptr %0, i64 56
  %4 = getelementptr inbounds nuw i8, ptr %0, i64 24
  %5 = getelementptr inbounds nuw i8, ptr %0, i64 80
  %6 = load ptr, ptr %5, align 8
  %7 = getelementptr inbounds nuw i8, ptr %0, i64 48
  %8 = load ptr, ptr %7, align 8
  %9 = ptrtoint ptr %6 to i64
  %10 = ptrtoint ptr %8 to i64
  %11 = sub i64 %9, %10
  %12 = ashr exact i64 %11, 3
  %13 = icmp ne ptr %6, null
  %.neg.i.i.i = sext i1 %13 to i64
  %14 = add nsw i64 %12, %.neg.i.i.i
  %15 = shl nsw i64 %14, 5
  %16 = load ptr, ptr %3, align 8
  %17 = getelementptr inbounds nuw i8, ptr %0, i64 64
  %18 = load ptr, ptr %17, align 8
  %19 = ptrtoint ptr %16 to i64
  %20 = ptrtoint ptr %18 to i64
  %21 = sub i64 %19, %20
  %22 = ashr exact i64 %21, 4
  %23 = add nsw i64 %15, %22
  %24 = getelementptr inbounds nuw i8, ptr %0, i64 40
  %25 = load ptr, ptr %24, align 8
  %26 = load ptr, ptr %4, align 8
  %27 = ptrtoint ptr %25 to i64
  %28 = ptrtoint ptr %26 to i64
  %29 = sub i64 %27, %28
  %30 = ashr exact i64 %29, 4
  %31 = add nsw i64 %23, %30
  %32 = getelementptr inbounds nuw i8, ptr %0, i64 128
  %33 = load i8, ptr %32, align 8, !range !5, !noundef !6
  %34 = trunc nuw i8 %33 to i1
  %35 = tail call i64 @llvm.usub.sat.i64(i64 %31, i64 32)
  %.0.i = select i1 %34, i64 %35, i64 %31
  %36 = getelementptr inbounds nuw i8, ptr %1, i64 56
  %37 = getelementptr inbounds nuw i8, ptr %1, i64 24
  %38 = getelementptr inbounds nuw i8, ptr %1, i64 80
  %39 = load ptr, ptr %38, align 8
  %40 = getelementptr inbounds nuw i8, ptr %1, i64 48
  %41 = load ptr, ptr %40, align 8
  %42 = ptrtoint ptr %39 to i64
  %43 = ptrtoint ptr %41 to i64
  %44 = sub i64 %42, %43
  %45 = ashr exact i64 %44, 3
  %46 = icmp ne ptr %39, null
  %.neg.i.i.i15 = sext i1 %46 to i64
  %47 = add nsw i64 %45, %.neg.i.i.i15
  %48 = shl nsw i64 %47, 5
  %49 = load ptr, ptr %36, align 8
  %50 = getelementptr inbounds nuw i8, ptr %1, i64 64
  %51 = load ptr, ptr %50, align 8
  %52 = ptrtoint ptr %49 to i64
  %53 = ptrtoint ptr %51 to i64
  %54 = sub i64 %52, %53
  %55 = ashr exact i64 %54, 4
  %56 = add nsw i64 %48, %55
  %57 = getelementptr inbounds nuw i8, ptr %1, i64 40
  %58 = load ptr, ptr %57, align 8
  %59 = load ptr, ptr %37, align 8
  %60 = ptrtoint ptr %58 to i64
  %61 = ptrtoint ptr %59 to i64
  %62 = sub i64 %60, %61
  %63 = ashr exact i64 %62, 4
  %64 = add nsw i64 %56, %63
  %65 = getelementptr inbounds nuw i8, ptr %1, i64 128
  %66 = load i8, ptr %65, align 8, !range !5, !noundef !6
  %67 = trunc nuw i8 %66 to i1
  %68 = tail call i64 @llvm.usub.sat.i64(i64 %64, i64 32)
  %.0.i16 = select i1 %67, i64 %68, i64 %64
  %.not = icmp eq i64 %.0.i, %.0.i16
  br i1 %.not, label %71, label %69

69:                                               ; preds = %2
  %70 = icmp ult i64 %.0.i, %.0.i16
  br label %108

71:                                               ; preds = %2
  %72 = getelementptr inbounds nuw i8, ptr %0, i64 88
  %73 = load i64, ptr %72, align 8
  %74 = tail call range(i64 0, 65) i64 @llvm.ctpop.i64(i64 %73)
  %75 = getelementptr inbounds nuw i8, ptr %0, i64 96
  %76 = load i64, ptr %75, align 8
  %77 = tail call range(i64 0, 65) i64 @llvm.ctpop.i64(i64 %76)
  %78 = add nuw nsw i64 %77, %74
  %79 = getelementptr inbounds nuw i8, ptr %0, i64 104
  %80 = load i64, ptr %79, align 8
  %81 = tail call range(i64 0, 65) i64 @llvm.ctpop.i64(i64 %80)
  %82 = add nuw nsw i64 %78, %81
  %83 = getelementptr inbounds nuw i8, ptr %0, i64 112
  %84 = load i64, ptr %83, align 8
  %85 = tail call range(i64 0, 65) i64 @llvm.ctpop.i64(i64 %84)
  %86 = add nuw nsw i64 %82, %85
  %87 = getelementptr inbounds nuw i8, ptr %1, i64 88
  %88 = load i64, ptr %87, align 8
  %89 = tail call range(i64 0, 65) i64 @llvm.ctpop.i64(i64 %88)
  %90 = getelementptr inbounds nuw i8, ptr %1, i64 96
  %91 = load i64, ptr %90, align 8
  %92 = tail call range(i64 0, 65) i64 @llvm.ctpop.i64(i64 %91)
  %93 = add nuw nsw i64 %92, %89
  %94 = getelementptr inbounds nuw i8, ptr %1, i64 104
  %95 = load i64, ptr %94, align 8
  %96 = tail call range(i64 0, 65) i64 @llvm.ctpop.i64(i64 %95)
  %97 = add nuw nsw i64 %93, %96
  %98 = getelementptr inbounds nuw i8, ptr %1, i64 112
  %99 = load i64, ptr %98, align 8
  %100 = tail call range(i64 0, 65) i64 @llvm.ctpop.i64(i64 %99)
  %101 = add nuw nsw i64 %97, %100
  %.not14 = icmp eq i64 %86, %101
  br i1 %.not14, label %104, label %102

102:                                              ; preds = %71
  %103 = icmp samesign ult i64 %86, %101
  br label %108

104:                                              ; preds = %71
  %105 = load i32, ptr %0, align 8
  %106 = load i32, ptr %1, align 8
  %107 = icmp ult i32 %105, %106
  br label %108

108:                                              ; preds = %104, %102, %69
  %.0 = phi i1 [ %70, %69 ], [ %103, %102 ], [ %107, %104 ]
  ret i1 %.0
}